target datalayout = "e-m:e-p270:32:32-p271:32:32-p272:64:64-i64:64-i128:128-f80:128-n8:16:32:64-S128"
target triple = "x86_64-unknown-linux-gnu"

@.str.368 = private unnamed_addr constant [32 x i8] c"the type for built-in operators\00", align 1
@.str.369 = private unnamed_addr constant [34 x i8] c"the type of a symbolic expression\00", align 1
@.str.370 = private unnamed_addr constant [13 x i8] c"Boolean type\00", align 1
@.str.371 = private unnamed_addr constant [10 x i8] c"real type\00", align 1
@.str.372 = private unnamed_addr constant [13 x i8] c"integer type\00", align 1
@.str.373 = private unnamed_addr constant [29 x i8] c"floating-point rounding mode\00", align 1
@.str.374 = private unnamed_addr constant [12 x i8] c"String type\00", align 1
@.str.375 = private unnamed_addr constant [12 x i8] c"RegExp type\00", align 1
@.str.376 = private unnamed_addr constant [33 x i8] c"the type of bound variable lists\00", align 1
@.str.377 = private unnamed_addr constant [27 x i8] c"instantiation pattern type\00", align 1
@.str.378 = private unnamed_addr constant [40 x i8] c"the type of instantiation pattern lists\00", align 1
@.str.379 = private unnamed_addr constant [22 x i8] c"UNKNOWN_TYPE_CONSTANT\00", align 1

; Function Attrs: mustprogress nounwind uwtable
define hidden noundef ptr @_ZN4cvc58internal8toStringENS0_12TypeConstantE(i32 noundef %tc) #0 {
entry:
  %retval = alloca ptr, align 8
  %tc.addr = alloca i32, align 4
  store i32 %tc, ptr %tc.addr, align 4
  %0 = load i32, ptr %tc.addr, align 4
  switch i32 %0, label %sw.default [
    i32 0, label %sw.bb
    i32 1, label %sw.bb1
    i32 2, label %sw.bb2
    i32 3, label %sw.bb3
    i32 4, label %sw.bb4
    i32 5, label %sw.bb5
    i32 6, label %sw.bb6
    i32 7, label %sw.bb7
    i32 8, label %sw.bb8
    i32 9, label %sw.bb9
    i32 10, label %sw.bb10
  ]

sw.bb:                                            ; preds = %entry
  store ptr @.str.368, ptr %retval, align 8
  br label %return

sw.bb1:                                           ; preds = %entry
  store ptr @.str.369, ptr %retval, align 8
  br label %return

sw.bb2:                                           ; preds = %entry
  store ptr @.str.370, ptr %retval, align 8
  br label %return

sw.bb3:                                           ; preds = %entry
  store ptr @.str.371, ptr %retval, align 8
  br label %return

sw.bb4:                                           ; preds = %entry
  store ptr @.str.372, ptr %retval, align 8
  br label %return

sw.bb5:                                           ; preds = %entry
  store ptr @.str.373, ptr %retval, align 8
  br label %return

sw.bb6:                                           ; preds = %entry
  store ptr @.str.374, ptr %retval, align 8
  br label %return

sw.bb7:                                           ; preds = %entry
  store ptr @.str.375, ptr %retval, align 8
  br label %return

sw.bb8:                                           ; preds = %entry
  store ptr @.str.376, ptr %retval, align 8
  br label %return

sw.bb9:                                           ; preds = %entry
  store ptr @.str.377, ptr %retval, align 8
  br label %return

sw.bb10:                                          ; preds = %entry
  store ptr @.str.378, ptr %retval, align 8
  br label %return

sw.default:                                       ; preds = %entry
  store ptr @.str.379, ptr %retval, align 8
  br label %return

return:                                           ; preds = %sw.default, %sw.bb10, %sw.bb9, %sw.bb8, %sw.bb7, %sw.bb6, %sw.bb5, %sw.bb4, %sw.bb3, %sw.bb2, %sw.bb1, %sw.bb
  %1 = load ptr, ptr %retval, align 8
  ret ptr %1
}

; Function Attrs: mustprogress uwtable
define hidden noundef nonnull align 8 dereferenceable(8) ptr @_ZN4cvc58internallsERSoNS0_12TypeConstantE(ptr noundef nonnull align 8 dereferenceable(8) %out, i32 noundef %typeConstant) #1 {
entry:
  %out.addr = alloca ptr, align 8
  %typeConstant.addr = alloca i32, align 4
  store ptr %out, ptr %out.addr, align 8
  store i32 %typeConstant, ptr %typeConstant.addr, align 4
  %0 = load ptr, ptr %out.addr, align 8
  %1 = load i32, ptr %typeConstant.addr, align 4
  %call = call noundef ptr @_ZN4cvc58internal8toStringENS0_12TypeConstantE(i32 noundef %1)
  %call1 = call noundef nonnull align 8 dereferenceable(8) ptr @_ZStlsISt11char_traitsIcEERSt13basic_ostreamIcT_ES5_PKc(ptr noundef nonnull align 8 dereferenceable(8) %0, ptr noundef %call)
  ret ptr %call1
}