; Function Attrs: mustprogress uwtable
define hidden noundef nonnull align 8 dereferenceable(8) ptr @_ZN4cvc58internallsERSoNS0_12TypeConstantE(ptr noundef nonnull align 8 dereferenceable(8) %out, i32 noundef %typeConstant) local_unnamed_addr #1 {
entry:
  %0 = icmp ult i32 %typeConstant, 11
  br i1 %0, label %switch.lookup, label %_ZN4cvc58internal8toStringENS0_12TypeConstantE.exit

switch.lookup:                                    ; preds = %entry
  %1 = zext nneg i32 %typeConstant to i64
  %switch.gep = getelementptr inbounds [11 x ptr], ptr @switch.table._ZN4cvc58internallsERSoNS0_12TypeConstantE, i64 0, i64 %1
  %switch.load = load ptr, ptr %switch.gep, align 8
  br label %_ZN4cvc58internal8toStringENS0_12TypeConstantE.exit

_ZN4cvc58internal8toStringENS0_12TypeConstantE.exit: ; preds = %entry, %switch.lookup
  %retval.0.i = phi ptr [ %switch.load, %switch.lookup ], [ @.str.379, %entry ]
  %call1 = tail call noundef nonnull align 8 dereferenceable(8) ptr @_ZStlsISt11char_traitsIcEERSt13basic_ostreamIcT_ES5_PKc(ptr noundef nonnull align 8 dereferenceable(8) %out, ptr noundef nonnull %retval.0.i)
  ret ptr %call1
}